target datalayout = "e-m:e-p270:32:32-p271:32:32-p272:64:64-i64:64-i128:128-f80:128-n8:16:32:64-S128"
target triple = "x86_64-pc-linux-gnu"

%struct.Obj = type { ptr, ptr, ptr, ptr, i8, i32, i32, i8, i8, i8, i8, i8, ptr, ptr, i8, ptr, ptr, ptr, ptr, ptr, i32, i8, i8, %struct.StringArray }
%struct.StringArray = type { ptr, i32, i32 }
%struct.Type = type { i32, i32, i32, i8, i8, ptr, ptr, ptr, ptr, i32, ptr, ptr, ptr, i8, i8, ptr, ptr, i8, ptr }

@current_fn = internal global ptr null, align 8
@.str.41 = private unnamed_addr constant [16 x i8] c"  mov $0, %%rax\00", align 1
@.str.54 = private unnamed_addr constant [4 x i8] c"%dl\00", align 1
@.str.72 = private unnamed_addr constant [5 x i8] c"%rdx\00", align 1
@.str.85 = private unnamed_addr constant [5 x i8] c"%rax\00", align 1
@.str.117 = private unnamed_addr constant [19 x i8] c"  mov %%rax, %%rdi\00", align 1
@.str.182 = private unnamed_addr constant [13 x i8] c"  mov $0, %s\00", align 1
@.str.258 = private unnamed_addr constant [4 x i8] c"%al\00", align 1
@.str.269 = private unnamed_addr constant [24 x i8] c"  movss (%%rdi), %%xmm0\00", align 1
@.str.270 = private unnamed_addr constant [24 x i8] c"  movsd (%%rdi), %%xmm0\00", align 1
@.str.271 = private unnamed_addr constant [16 x i8] c"  shl $8, %%rax\00", align 1
@.str.272 = private unnamed_addr constant [22 x i8] c"  mov %d(%%rdi), %%al\00", align 1
@.str.273 = private unnamed_addr constant [26 x i8] c"  movss 8(%%rdi), %%xmm%d\00", align 1
@.str.274 = private unnamed_addr constant [26 x i8] c"  movsd 8(%%rdi), %%xmm%d\00", align 1
@.str.275 = private unnamed_addr constant [13 x i8] c"  shl $8, %s\00", align 1
@.str.276 = private unnamed_addr constant [20 x i8] c"  mov %d(%%rdi), %s\00", align 1

; Function Attrs: nounwind uwtable
define internal void @copy_struct_reg() #0 {
  %1 = alloca ptr, align 8
  %2 = alloca i32, align 4
  %3 = alloca i32, align 4
  %4 = alloca i32, align 4
  %5 = alloca ptr, align 8
  %6 = alloca ptr, align 8
  %7 = alloca i32, align 4
  call void @llvm.lifetime.start.p0(i64 8, ptr %1) #8
  %8 = load ptr, ptr @current_fn, align 8, !tbaa !11
  %9 = getelementptr inbounds nuw %struct.Obj, ptr %8, i32 0, i32 2
  %10 = load ptr, ptr %9, align 8, !tbaa !36
  %11 = getelementptr inbounds nuw %struct.Type, ptr %10, i32 0, i32 15
  %12 = load ptr, ptr %11, align 8, !tbaa !132
  store ptr %12, ptr %1, align 8, !tbaa !37
  call void @llvm.lifetime.start.p0(i64 4, ptr %2) #8
  store i32 0, ptr %2, align 4, !tbaa !7
  call void @llvm.lifetime.start.p0(i64 4, ptr %3) #8
  store i32 0, ptr %3, align 4, !tbaa !7
  call void (ptr, ...) @println(ptr noundef @.str.117)
  %13 = load ptr, ptr %1, align 8, !tbaa !37
  %14 = call zeroext i1 @has_flonum(ptr noundef %13, i32 noundef 0, i32 noundef 8, i32 noundef 0)
  br i1 %14, label %15, label %25

15:                                               ; preds = %0
  %16 = load ptr, ptr %1, align 8, !tbaa !37
  %17 = getelementptr inbounds nuw %struct.Type, ptr %16, i32 0, i32 1
  %18 = load i32, ptr %17, align 4, !tbaa !41
  %19 = icmp eq i32 %18, 4
  br i1 %19, label %20, label %21

20:                                               ; preds = %15
  call void (ptr, ...) @println(ptr noundef @.str.269)
  br label %22

21:                                               ; preds = %15
  call void (ptr, ...) @println(ptr noundef @.str.270)
  br label %22

22:                                               ; preds = %21, %20
  %23 = load i32, ptr %3, align 4, !tbaa !7
  %24 = add nsw i32 %23, 1
  store i32 %24, ptr %3, align 4, !tbaa !7
  br label %50

25:                                               ; preds = %0
  call void (ptr, ...) @println(ptr noundef @.str.41)
  call void @llvm.lifetime.start.p0(i64 4, ptr %4) #8
  %26 = load ptr, ptr %1, align 8, !tbaa !37
  %27 = getelementptr inbounds nuw %struct.Type, ptr %26, i32 0, i32 1
  %28 = load i32, ptr %27, align 4, !tbaa !41
  %29 = icmp slt i32 8, %28
  br i1 %29, label %30, label %31

30:                                               ; preds = %25
  br label %35

31:                                               ; preds = %25
  %32 = load ptr, ptr %1, align 8, !tbaa !37
  %33 = getelementptr inbounds nuw %struct.Type, ptr %32, i32 0, i32 1
  %34 = load i32, ptr %33, align 4, !tbaa !41
  br label %35

35:                                               ; preds = %31, %30
  %36 = phi i32 [ 8, %30 ], [ %34, %31 ]
  %37 = sub nsw i32 %36, 1
  store i32 %37, ptr %4, align 4, !tbaa !7
  br label %38

38:                                               ; preds = %44, %35
  %39 = load i32, ptr %4, align 4, !tbaa !7
  %40 = icmp sge i32 %39, 0
  br i1 %40, label %42, label %41

41:                                               ; preds = %38
  call void @llvm.lifetime.end.p0(i64 4, ptr %4) #8
  br label %47

42:                                               ; preds = %38
  call void (ptr, ...) @println(ptr noundef @.str.271)
  %43 = load i32, ptr %4, align 4, !tbaa !7
  call void (ptr, ...) @println(ptr noundef @.str.272, i32 noundef %43)
  br label %44

44:                                               ; preds = %42
  %45 = load i32, ptr %4, align 4, !tbaa !7
  %46 = add nsw i32 %45, -1
  store i32 %46, ptr %4, align 4, !tbaa !7
  br label %38, !llvm.loop !133

47:                                               ; preds = %41
  %48 = load i32, ptr %2, align 4, !tbaa !7
  %49 = add nsw i32 %48, 1
  store i32 %49, ptr %2, align 4, !tbaa !7
  br label %50

50:                                               ; preds = %47, %22
  %51 = load ptr, ptr %1, align 8, !tbaa !37
  %52 = getelementptr inbounds nuw %struct.Type, ptr %51, i32 0, i32 1
  %53 = load i32, ptr %52, align 4, !tbaa !41
  %54 = icmp sgt i32 %53, 8
  br i1 %54, label %55, label %101

55:                                               ; preds = %50
  %56 = load ptr, ptr %1, align 8, !tbaa !37
  %57 = call zeroext i1 @has_flonum(ptr noundef %56, i32 noundef 8, i32 noundef 16, i32 noundef 0)
  br i1 %57, label %58, label %68

58:                                               ; preds = %55
  %59 = load ptr, ptr %1, align 8, !tbaa !37
  %60 = getelementptr inbounds nuw %struct.Type, ptr %59, i32 0, i32 1
  %61 = load i32, ptr %60, align 4, !tbaa !41
  %62 = icmp eq i32 %61, 4
  br i1 %62, label %63, label %65

63:                                               ; preds = %58
  %64 = load i32, ptr %3, align 4, !tbaa !7
  call void (ptr, ...) @println(ptr noundef @.str.273, i32 noundef %64)
  br label %67

65:                                               ; preds = %58
  %66 = load i32, ptr %3, align 4, !tbaa !7
  call void (ptr, ...) @println(ptr noundef @.str.274, i32 noundef %66)
  br label %67

67:                                               ; preds = %65, %63
  br label %100

68:                                               ; preds = %55
  call void @llvm.lifetime.start.p0(i64 8, ptr %5) #8
  %69 = load i32, ptr %2, align 4, !tbaa !7
  %70 = icmp eq i32 %69, 0
  %71 = select i1 %70, ptr @.str.258, ptr @.str.54
  store ptr %71, ptr %5, align 8, !tbaa !23
  call void @llvm.lifetime.start.p0(i64 8, ptr %6) #8
  %72 = load i32, ptr %2, align 4, !tbaa !7
  %73 = icmp eq i32 %72, 0
  %74 = select i1 %73, ptr @.str.85, ptr @.str.72
  store ptr %74, ptr %6, align 8, !tbaa !23
  %75 = load ptr, ptr %6, align 8, !tbaa !23
  call void (ptr, ...) @println(ptr noundef @.str.182, ptr noundef %75)
  call void @llvm.lifetime.start.p0(i64 4, ptr %7) #8
  %76 = load ptr, ptr %1, align 8, !tbaa !37
  %77 = getelementptr inbounds nuw %struct.Type, ptr %76, i32 0, i32 1
  %78 = load i32, ptr %77, align 4, !tbaa !41
  %79 = icmp slt i32 16, %78
  br i1 %79, label %80, label %81

80:                                               ; preds = %68
  br label %85

81:                                               ; preds = %68
  %82 = load ptr, ptr %1, align 8, !tbaa !37
  %83 = getelementptr inbounds nuw %struct.Type, ptr %82, i32 0, i32 1
  %84 = load i32, ptr %83, align 4, !tbaa !41
  br label %85

85:                                               ; preds = %81, %80
  %86 = phi i32 [ 16, %80 ], [ %84, %81 ]
  %87 = sub nsw i32 %86, 1
  store i32 %87, ptr %7, align 4, !tbaa !7
  br label %88

88:                                               ; preds = %96, %85
  %89 = load i32, ptr %7, align 4, !tbaa !7
  %90 = icmp sge i32 %89, 8
  br i1 %90, label %92, label %91

91:                                               ; preds = %88
  call void @llvm.lifetime.end.p0(i64 4, ptr %7) #8
  br label %99

92:                                               ; preds = %88
  %93 = load ptr, ptr %6, align 8, !tbaa !23
  call void (ptr, ...) @println(ptr noundef @.str.275, ptr noundef %93)
  %94 = load i32, ptr %7, align 4, !tbaa !7
  %95 = load ptr, ptr %5, align 8, !tbaa !23
  call void (ptr, ...) @println(ptr noundef @.str.276, i32 noundef %94, ptr noundef %95)
  br label %96

96:                                               ; preds = %92
  %97 = load i32, ptr %7, align 4, !tbaa !7
  %98 = add nsw i32 %97, -1
  store i32 %98, ptr %7, align 4, !tbaa !7
  br label %88, !llvm.loop !134

99:                                               ; preds = %91
  call void @llvm.lifetime.end.p0(i64 8, ptr %6) #8
  call void @llvm.lifetime.end.p0(i64 8, ptr %5) #8
  br label %100

100:                                              ; preds = %99, %67
  br label %101

101:                                              ; preds = %100, %50
  call void @llvm.lifetime.end.p0(i64 4, ptr %3) #8
  call void @llvm.lifetime.end.p0(i64 4, ptr %2) #8
  call void @llvm.lifetime.end.p0(i64 8, ptr %1) #8
  ret void
}