; Function Attrs: nofree nounwind uwtable
define internal fastcc void @copy_struct_reg() unnamed_addr #4 {
  %1 = load ptr, ptr @current_fn, align 8, !tbaa !27
  %2 = getelementptr inbounds nuw i8, ptr %1, i64 16
  %3 = load ptr, ptr %2, align 8, !tbaa !28
  %4 = getelementptr inbounds nuw i8, ptr %3, i64 88
  %5 = load ptr, ptr %4, align 8, !tbaa !125
  tail call void (ptr, ...) @println(ptr noundef nonnull @.str.117)
  %6 = tail call fastcc zeroext i1 @has_flonum(ptr noundef %5, i32 noundef 0, i32 noundef 8, i32 noundef 0)
  br i1 %6, label %.loopexit31.sink.split, label %10

.loopexit31.sink.split:                           ; preds = %0
  %7 = getelementptr inbounds nuw i8, ptr %5, i64 4
  %8 = load i32, ptr %7, align 4, !tbaa !32
  %9 = icmp eq i32 %8, 4
  %.str.269..str.270 = select i1 %9, ptr @.str.269, ptr @.str.270
  tail call void (ptr, ...) @println(ptr noundef nonnull %.str.269..str.270)
  br label %.loopexit31

10:                                               ; preds = %0
  tail call void (ptr, ...) @println(ptr noundef nonnull @.str.41)
  %11 = getelementptr inbounds nuw i8, ptr %5, i64 4
  %12 = load i32, ptr %11, align 4, !tbaa !32
  %13 = tail call i32 @llvm.smin.i32(i32 %12, i32 8)
  %.02532 = add i32 %13, -1
  %14 = icmp sgt i32 %.02532, -1
  br i1 %14, label %select.unfold, label %.loopexit31

select.unfold:                                    ; preds = %10, %select.unfold
  %.02533 = phi i32 [ %.025, %select.unfold ], [ %.02532, %10 ]
  tail call void (ptr, ...) @println(ptr noundef nonnull @.str.271)
  tail call void (ptr, ...) @println(ptr noundef nonnull @.str.272, i32 noundef %.02533)
  %.025 = add nsw i32 %.02533, -1
  %.not = icmp eq i32 %.02533, 0
  br i1 %.not, label %.loopexit31, label %select.unfold, !llvm.loop !126

.loopexit31:                                      ; preds = %select.unfold, %.loopexit31.sink.split, %10
  %.024 = phi i32 [ 0, %10 ], [ 1, %.loopexit31.sink.split ], [ 0, %select.unfold ]
  %15 = getelementptr inbounds nuw i8, ptr %5, i64 4
  %16 = load i32, ptr %15, align 4, !tbaa !32
  %17 = icmp sgt i32 %16, 8
  br i1 %17, label %18, label %.loopexit

18:                                               ; preds = %.loopexit31
  %19 = tail call fastcc zeroext i1 @has_flonum(ptr noundef nonnull %5, i32 noundef 8, i32 noundef 16, i32 noundef 0)
  br i1 %19, label %20, label %21

20:                                               ; preds = %18
  tail call void (ptr, ...) @println(ptr noundef nonnull @.str.274, i32 noundef %.024)
  br label %.loopexit

21:                                               ; preds = %18
  %22 = select i1 %6, ptr @.str.258, ptr @.str.54
  %23 = select i1 %6, ptr @.str.85, ptr @.str.72
  tail call void (ptr, ...) @println(ptr noundef nonnull @.str.182, ptr noundef nonnull %23)
  %24 = load i32, ptr %15, align 4, !tbaa !32
  %25 = tail call i32 @llvm.smin.i32(i32 %24, i32 16)
  %.034 = add i32 %25, -1
  %26 = icmp sgt i32 %.034, 7
  br i1 %26, label %select.unfold29, label %.loopexit

select.unfold29:                                  ; preds = %21, %select.unfold29
  %.035 = phi i32 [ %.0, %select.unfold29 ], [ %.034, %21 ]
  tail call void (ptr, ...) @println(ptr noundef nonnull @.str.275, ptr noundef nonnull %23)
  tail call void (ptr, ...) @println(ptr noundef nonnull @.str.276, i32 noundef %.035, ptr noundef nonnull %22)
  %.0 = add nsw i32 %.035, -1
  %27 = icmp samesign ugt i32 %.035, 8
  br i1 %27, label %select.unfold29, label %.loopexit, !llvm.loop !127

.loopexit:                                        ; preds = %select.unfold29, %21, %20, %.loopexit31
  ret void
}